; Function Attrs: nounwind uwtable
define range(i32 0, 2) i32 @H5Z_term_package() local_unnamed_addr #0 {
  %1 = load ptr, ptr @H5Z_table_g, align 8
  %.not = icmp eq ptr %1, null
  br i1 %.not, label %4, label %2

2:                                                ; preds = %0
  %3 = tail call ptr @H5MM_xfree(ptr noundef nonnull %1) #9
  store ptr %3, ptr @H5Z_table_g, align 8
  store i64 0, ptr @H5Z_table_alloc_g, align 8
  store i64 0, ptr @H5Z_table_used_g, align 8
  br label %4

4:                                                ; preds = %2, %0
  %.0 = phi i32 [ 1, %2 ], [ 0, %0 ]
  ret i32 %.0
}